target datalayout = "e-m:e-p270:32:32-p271:32:32-p272:64:64-i64:64-i128:128-f80:128-n8:16:32:64-S128"
target triple = "x86_64-pc-linux-gnu"

%struct._object = type { i64, ptr }
%"class.nanobind::python_error" = type { %"class.std::exception", ptr, ptr, ptr, ptr }
%"class.std::exception" = type { ptr }
%"struct.nanobind::gil_scoped_acquire" = type { i32 }
%"struct.nanobind::error_scope" = type { ptr, ptr, ptr }

@_ZTVN8nanobind12python_errorE = unnamed_addr constant { [5 x ptr] } { [5 x ptr] [ptr null, ptr @_ZTIN8nanobind12python_errorE, ptr @_ZN8nanobind12python_errorD1Ev, ptr @_ZN8nanobind12python_errorD0Ev, ptr @_ZNK8nanobind12python_error4whatEv] }, align 8

; Function Attrs: inlinehint mustprogress uwtable
define internal void @_ZL10_Py_DECREFP7_object(ptr noundef %0) #10 {
  %2 = alloca ptr, align 8
  store ptr %0, ptr %2, align 8
  %3 = load ptr, ptr %2, align 8
  %4 = getelementptr inbounds nuw %struct._object, ptr %3, i32 0, i32 0
  %5 = load i64, ptr %4, align 8
  %6 = add nsw i64 %5, -1
  store i64 %6, ptr %4, align 8
  %7 = icmp ne i64 %6, 0
  br i1 %7, label %8, label %9

8:                                                ; preds = %1
  br label %11

9:                                                ; preds = %1
  %10 = load ptr, ptr %2, align 8
  call void @_Py_Dealloc(ptr noundef %10)
  br label %11

11:                                               ; preds = %9, %8
  ret void
}

; Function Attrs: mustprogress nounwind uwtable
define linkonce_odr hidden void @_ZN8nanobind18gil_scoped_acquireD2Ev(ptr noundef nonnull align 4 dereferenceable(4) %0) unnamed_addr #2 comdat align 2 personality ptr @__gxx_personality_v0 {
  %2 = alloca ptr, align 8
  store ptr %0, ptr %2, align 8
  %3 = load ptr, ptr %2, align 8
  %4 = getelementptr inbounds nuw %"struct.nanobind::gil_scoped_acquire", ptr %3, i32 0, i32 0
  %5 = load i32, ptr %4, align 4
  invoke void @PyGILState_Release(i32 noundef %5)
          to label %6 unwind label %7

6:                                                ; preds = %1
  ret void

7:                                                ; preds = %1
  %8 = landingpad { ptr, i32 }
          catch ptr null
  %9 = extractvalue { ptr, i32 } %8, 0
  call void @__clang_call_terminate(ptr %9) #25
  unreachable
}

; Function Attrs: mustprogress nounwind uwtable
define linkonce_odr hidden void @_ZN8nanobind11error_scopeD2Ev(ptr noundef nonnull align 8 dereferenceable(24) %0) unnamed_addr #2 comdat align 2 personality ptr @__gxx_personality_v0 {
  %2 = alloca ptr, align 8
  store ptr %0, ptr %2, align 8
  %3 = load ptr, ptr %2, align 8
  %4 = getelementptr inbounds nuw %"struct.nanobind::error_scope", ptr %3, i32 0, i32 0
  %5 = load ptr, ptr %4, align 8
  %6 = getelementptr inbounds nuw %"struct.nanobind::error_scope", ptr %3, i32 0, i32 1
  %7 = load ptr, ptr %6, align 8
  %8 = getelementptr inbounds nuw %"struct.nanobind::error_scope", ptr %3, i32 0, i32 2
  %9 = load ptr, ptr %8, align 8
  invoke void @PyErr_Restore(ptr noundef %5, ptr noundef %7, ptr noundef %9)
          to label %10 unwind label %11

10:                                               ; preds = %1
  ret void

11:                                               ; preds = %1
  %12 = landingpad { ptr, i32 }
          catch ptr null
  %13 = extractvalue { ptr, i32 } %12, 0
  call void @__clang_call_terminate(ptr %13) #25
  unreachable
}

; Function Attrs: inlinehint mustprogress uwtable
define internal void @_ZL11_Py_XDECREFP7_object(ptr noundef %0) #10 {
  %2 = alloca ptr, align 8
  store ptr %0, ptr %2, align 8
  %3 = load ptr, ptr %2, align 8
  %4 = icmp ne ptr %3, null
  br i1 %4, label %5, label %7

5:                                                ; preds = %1
  %6 = load ptr, ptr %2, align 8
  call void @_ZL10_Py_DECREFP7_object(ptr noundef %6)
  br label %7

7:                                                ; preds = %5, %1
  ret void
}

; Function Attrs: mustprogress uwtable
define linkonce_odr hidden void @_ZN8nanobind11error_scopeC2Ev(ptr noundef nonnull align 8 dereferenceable(24) %0) unnamed_addr #1 comdat align 2 {
  %2 = alloca ptr, align 8
  store ptr %0, ptr %2, align 8
  %3 = load ptr, ptr %2, align 8
  %4 = getelementptr inbounds nuw %"struct.nanobind::error_scope", ptr %3, i32 0, i32 0
  %5 = getelementptr inbounds nuw %"struct.nanobind::error_scope", ptr %3, i32 0, i32 1
  %6 = getelementptr inbounds nuw %"struct.nanobind::error_scope", ptr %3, i32 0, i32 2
  call void @PyErr_Fetch(ptr noundef %4, ptr noundef %5, ptr noundef %6)
  ret void
}

; Function Attrs: mustprogress nounwind uwtable
define linkonce_odr hidden void @_ZN8nanobind18gil_scoped_acquireC2Ev(ptr noundef nonnull align 4 dereferenceable(4) %0) unnamed_addr #2 comdat align 2 personality ptr @__gxx_personality_v0 {
  %2 = alloca ptr, align 8
  store ptr %0, ptr %2, align 8
  %3 = load ptr, ptr %2, align 8
  %4 = getelementptr inbounds nuw %"struct.nanobind::gil_scoped_acquire", ptr %3, i32 0, i32 0
  %5 = invoke i32 @PyGILState_Ensure()
          to label %6 unwind label %7

6:                                                ; preds = %1
  store i32 %5, ptr %4, align 4
  ret void

7:                                                ; preds = %1
  %8 = landingpad { ptr, i32 }
          catch ptr null
  %9 = extractvalue { ptr, i32 } %8, 0
  call void @__clang_call_terminate(ptr %9) #25
  unreachable
}

; Function Attrs: mustprogress nounwind uwtable
define void @_ZN8nanobind12python_errorD2Ev(ptr noundef nonnull align 8 dereferenceable(40) %0) unnamed_addr #2 align 2 personality ptr @__gxx_personality_v0 {
  %2 = alloca ptr, align 8
  %3 = alloca %"struct.nanobind::gil_scoped_acquire", align 4
  %4 = alloca %"struct.nanobind::error_scope", align 8
  store ptr %0, ptr %2, align 8
  %5 = load ptr, ptr %2, align 8
  store ptr getelementptr inbounds inrange(-16, 24) ({ [5 x ptr] }, ptr @_ZTVN8nanobind12python_errorE, i32 0, i32 0, i32 2), ptr %5, align 8
  %6 = getelementptr inbounds nuw %"class.nanobind::python_error", ptr %5, i32 0, i32 1
  %7 = load ptr, ptr %6, align 8
  %8 = icmp ne ptr %7, null
  br i1 %8, label %9, label %20

9:                                                ; preds = %1
  call void @llvm.lifetime.start.p0(i64 4, ptr %3) #3
  call void @_ZN8nanobind18gil_scoped_acquireC2Ev(ptr noundef nonnull align 4 dereferenceable(4) %3) #3
  call void @llvm.lifetime.start.p0(i64 24, ptr %4) #3
  invoke void @_ZN8nanobind11error_scopeC2Ev(ptr noundef nonnull align 8 dereferenceable(24) %4)
          to label %10 unwind label %23

10:                                               ; preds = %9
  %11 = getelementptr inbounds nuw %"class.nanobind::python_error", ptr %5, i32 0, i32 1
  %12 = load ptr, ptr %11, align 8
  invoke void @_ZL11_Py_XDECREFP7_object(ptr noundef %12)
          to label %13 unwind label %23

13:                                               ; preds = %10
  %14 = getelementptr inbounds nuw %"class.nanobind::python_error", ptr %5, i32 0, i32 2
  %15 = load ptr, ptr %14, align 8
  invoke void @_ZL11_Py_XDECREFP7_object(ptr noundef %15)
          to label %16 unwind label %23

16:                                               ; preds = %13
  %17 = getelementptr inbounds nuw %"class.nanobind::python_error", ptr %5, i32 0, i32 3
  %18 = load ptr, ptr %17, align 8
  invoke void @_ZL11_Py_XDECREFP7_object(ptr noundef %18)
          to label %19 unwind label %23

19:                                               ; preds = %16
  call void @_ZN8nanobind11error_scopeD2Ev(ptr noundef nonnull align 8 dereferenceable(24) %4) #3
  call void @llvm.lifetime.end.p0(i64 24, ptr %4) #3
  call void @_ZN8nanobind18gil_scoped_acquireD2Ev(ptr noundef nonnull align 4 dereferenceable(4) %3) #3
  call void @llvm.lifetime.end.p0(i64 4, ptr %3) #3
  br label %20

20:                                               ; preds = %19, %1
  %21 = getelementptr inbounds nuw %"class.nanobind::python_error", ptr %5, i32 0, i32 4
  %22 = load ptr, ptr %21, align 8
  call void @free(ptr noundef %22) #3
  call void @_ZNSt9exceptionD2Ev(ptr noundef nonnull align 8 dereferenceable(8) %5) #3
  ret void

23:                                               ; preds = %16, %13, %10, %9
  %24 = landingpad { ptr, i32 }
          catch ptr null
  %25 = extractvalue { ptr, i32 } %24, 0
  call void @__clang_call_terminate(ptr %25) #25
  unreachable
}