; Function Attrs: mustprogress nounwind uwtable
define void @_ZN8nanobind12python_errorD2Ev(ptr noundef nonnull align 8 dereferenceable(40) initializes((0, 8)) %0) unnamed_addr #0 align 2 personality ptr @__gxx_personality_v0 {
  %2 = alloca %"struct.nanobind::error_scope", align 8
  store ptr getelementptr inbounds nuw inrange(-16, 24) (i8, ptr @_ZTVN8nanobind12python_errorE, i64 16), ptr %0, align 8
  %3 = getelementptr inbounds nuw i8, ptr %0, i64 8
  %4 = load ptr, ptr %3, align 8
  %.not = icmp eq ptr %4, null
  br i1 %.not, label %_ZN8nanobind18gil_scoped_acquireD2Ev.exit, label %5

5:                                                ; preds = %1
  %6 = invoke i32 @PyGILState_Ensure()
          to label %_ZN8nanobind18gil_scoped_acquireC2Ev.exit unwind label %7

7:                                                ; preds = %5
  %8 = landingpad { ptr, i32 }
          catch ptr null
  %9 = extractvalue { ptr, i32 } %8, 0
  tail call void @__clang_call_terminate(ptr %9) #27
  unreachable

_ZN8nanobind18gil_scoped_acquireC2Ev.exit:        ; preds = %5
  call void @llvm.lifetime.start.p0(i64 24, ptr nonnull %2) #26
  %10 = getelementptr inbounds nuw i8, ptr %2, i64 8
  %11 = getelementptr inbounds nuw i8, ptr %2, i64 16
  invoke void @PyErr_Fetch(ptr noundef nonnull align 8 dereferenceable(24) %2, ptr noundef nonnull %10, ptr noundef nonnull %11)
          to label %_ZN8nanobind11error_scopeC2Ev.exit unwind label %40

_ZN8nanobind11error_scopeC2Ev.exit:               ; preds = %_ZN8nanobind18gil_scoped_acquireC2Ev.exit
  %12 = load ptr, ptr %3, align 8
  %.not.i = icmp eq ptr %12, null
  br i1 %.not.i, label %_ZL11_Py_XDECREFP7_object.exit, label %13

13:                                               ; preds = %_ZN8nanobind11error_scopeC2Ev.exit
  %14 = load i64, ptr %12, align 8
  %15 = add nsw i64 %14, -1
  store i64 %15, ptr %12, align 8
  %.not.i.i = icmp eq i64 %15, 0
  br i1 %.not.i.i, label %16, label %_ZL11_Py_XDECREFP7_object.exit

16:                                               ; preds = %13
  invoke void @_Py_Dealloc(ptr noundef nonnull %12)
          to label %_ZL11_Py_XDECREFP7_object.exit unwind label %40

_ZL11_Py_XDECREFP7_object.exit:                   ; preds = %13, %_ZN8nanobind11error_scopeC2Ev.exit, %16
  %17 = getelementptr inbounds nuw i8, ptr %0, i64 16
  %18 = load ptr, ptr %17, align 8
  %.not.i1 = icmp eq ptr %18, null
  br i1 %.not.i1, label %_ZL11_Py_XDECREFP7_object.exit4, label %19

19:                                               ; preds = %_ZL11_Py_XDECREFP7_object.exit
  %20 = load i64, ptr %18, align 8
  %21 = add nsw i64 %20, -1
  store i64 %21, ptr %18, align 8
  %.not.i.i2 = icmp eq i64 %21, 0
  br i1 %.not.i.i2, label %22, label %_ZL11_Py_XDECREFP7_object.exit4

22:                                               ; preds = %19
  invoke void @_Py_Dealloc(ptr noundef nonnull %18)
          to label %_ZL11_Py_XDECREFP7_object.exit4 unwind label %40

_ZL11_Py_XDECREFP7_object.exit4:                  ; preds = %19, %_ZL11_Py_XDECREFP7_object.exit, %22
  %23 = getelementptr inbounds nuw i8, ptr %0, i64 24
  %24 = load ptr, ptr %23, align 8
  %.not.i5 = icmp eq ptr %24, null
  br i1 %.not.i5, label %_ZL11_Py_XDECREFP7_object.exit8, label %25

25:                                               ; preds = %_ZL11_Py_XDECREFP7_object.exit4
  %26 = load i64, ptr %24, align 8
  %27 = add nsw i64 %26, -1
  store i64 %27, ptr %24, align 8
  %.not.i.i6 = icmp eq i64 %27, 0
  br i1 %.not.i.i6, label %28, label %_ZL11_Py_XDECREFP7_object.exit8

28:                                               ; preds = %25
  invoke void @_Py_Dealloc(ptr noundef nonnull %24)
          to label %_ZL11_Py_XDECREFP7_object.exit8 unwind label %40

_ZL11_Py_XDECREFP7_object.exit8:                  ; preds = %25, %_ZL11_Py_XDECREFP7_object.exit4, %28
  %29 = load ptr, ptr %2, align 8
  %30 = load ptr, ptr %10, align 8
  %31 = load ptr, ptr %11, align 8
  invoke void @PyErr_Restore(ptr noundef %29, ptr noundef %30, ptr noundef %31)
          to label %_ZN8nanobind11error_scopeD2Ev.exit unwind label %32

32:                                               ; preds = %_ZL11_Py_XDECREFP7_object.exit8
  %33 = landingpad { ptr, i32 }
          catch ptr null
  %34 = extractvalue { ptr, i32 } %33, 0
  call void @__clang_call_terminate(ptr %34) #27
  unreachable

_ZN8nanobind11error_scopeD2Ev.exit:               ; preds = %_ZL11_Py_XDECREFP7_object.exit8
  call void @llvm.lifetime.end.p0(i64 24, ptr nonnull %2) #26
  invoke void @PyGILState_Release(i32 noundef %6)
          to label %_ZN8nanobind18gil_scoped_acquireD2Ev.exit unwind label %35

35:                                               ; preds = %_ZN8nanobind11error_scopeD2Ev.exit
  %36 = landingpad { ptr, i32 }
          catch ptr null
  %37 = extractvalue { ptr, i32 } %36, 0
  call void @__clang_call_terminate(ptr %37) #27
  unreachable

_ZN8nanobind18gil_scoped_acquireD2Ev.exit:        ; preds = %_ZN8nanobind11error_scopeD2Ev.exit, %1
  %38 = getelementptr inbounds nuw i8, ptr %0, i64 32
  %39 = load ptr, ptr %38, align 8
  call void @free(ptr noundef %39) #26
  call void @_ZNSt9exceptionD2Ev(ptr noundef nonnull align 8 dereferenceable(8) %0) #26
  ret void

40:                                               ; preds = %28, %22, %16, %_ZN8nanobind18gil_scoped_acquireC2Ev.exit
  %41 = landingpad { ptr, i32 }
          catch ptr null
  %42 = extractvalue { ptr, i32 } %41, 0
  call void @__clang_call_terminate(ptr %42) #27
  unreachable
}